; Function Attrs: nounwind uwtable
define range(i32 -1, 1) i32 @H5C__image_stats(ptr noundef readnone captures(address_is_null) %0, i1 noundef zeroext %1) local_unnamed_addr #0 {
  %3 = load i8, ptr @H5C_init_g, align 1, !tbaa !3, !range !7, !noundef !8
  %4 = trunc nuw i8 %3 to i1
  %5 = load i8, ptr @H5_libterm_g, align 1, !range !7
  %6 = trunc nuw i8 %5 to i1
  %7 = select i1 %4, i1 true, i1 %6
  br i1 %7, label %9, label %8, !prof !9

8:                                                ; preds = %2
  store i8 1, ptr @H5C_init_g, align 1, !tbaa !3
  br label %9

9:                                                ; preds = %8, %2
  %10 = phi i8 [ 1, %8 ], [ %3, %2 ]
  %11 = trunc nuw i8 %10 to i1
  %12 = xor i1 %6, true
  %13 = select i1 %11, i1 true, i1 %12
  %14 = icmp eq ptr %0, null
  %or.cond = and i1 %14, %13
  br i1 %or.cond, label %15, label %19, !prof !33

15:                                               ; preds = %9
  %16 = load i64, ptr @H5E_CACHE_g, align 8, !tbaa !11
  %17 = load i64, ptr @H5E_SYSTEM_g, align 8, !tbaa !11
  %18 = tail call i32 (ptr, ptr, i32, i64, i64, ptr, ...) @H5E_printf_stack(ptr noundef nonnull @.str, ptr noundef nonnull @__func__.H5C__image_stats, i32 noundef 1561, i64 noundef %16, i64 noundef %17, ptr noundef nonnull @.str.22) #8
  br label %19

19:                                               ; preds = %15, %9
  %.0 = phi i32 [ -1, %15 ], [ 0, %9 ]
  ret i32 %.0
}